; ModuleID = 'source-C-CXX/10/133.c'
source_filename = "source-C-CXX/10/133.c"
target datalayout = "e-m:e-p270:32:32-p271:32:32-p272:64:64-i64:64-f80:128-n8:16:32:64-S128"
target triple = "x86_64-pc-linux-gnu"

@__const.main.days = private unnamed_addr constant [12 x i32] [i32 31, i32 28, i32 31, i32 30, i32 31, i32 30, i32 31, i32 31, i32 30, i32 31, i32 30, i32 31], align 16
@.str = private unnamed_addr constant [9 x i8] c"%d %d %d\00", align 1
@.str.1 = private unnamed_addr constant [4 x i8] c"%d\0A\00", align 1

; Function Attrs: nofree nounwind sspstrong uwtable
define dso_local i32 @main() local_unnamed_addr #0 {
  %1 = alloca i32, align 4
  %2 = alloca i32, align 4
  %3 = alloca i32, align 4
  %4 = bitcast i32* %1 to i8*
  call void @llvm.lifetime.start.p0i8(i64 4, i8* nonnull %4) #4
  %5 = bitcast i32* %2 to i8*
  call void @llvm.lifetime.start.p0i8(i64 4, i8* nonnull %5) #4
  %6 = bitcast i32* %3 to i8*
  call void @llvm.lifetime.start.p0i8(i64 4, i8* nonnull %6) #4
  %7 = call i32 (i8*, ...) @__isoc99_scanf(i8* getelementptr inbounds ([9 x i8], [9 x i8]* @.str, i64 0, i64 0), i32* nonnull %1, i32* nonnull %2, i32* nonnull %3)
  %8 = load i32, i32* %1, align 4, !tbaa !5
  %9 = and i32 %8, 3
  %10 = icmp eq i32 %9, 0
  br i1 %10, label %11, label %18

11:                                               ; preds = %0
  %12 = srem i32 %8, 100
  %13 = icmp eq i32 %12, 0
  br i1 %13, label %14, label %18

14:                                               ; preds = %11
  %15 = srem i32 %8, 400
  %16 = icmp eq i32 %15, 0
  %17 = select i1 %16, i32 29, i32 28
  br label %18

18:                                               ; preds = %14, %11, %0
  %19 = phi i32 [ 28, %0 ], [ 29, %11 ], [ %17, %14 ]
  %20 = load i32, i32* %2, align 4, !tbaa !5
  %21 = icmp sgt i32 %20, 1
  br i1 %21, label %22, label %103

22:                                               ; preds = %18
  %23 = zext i32 %20 to i64
  %24 = icmp eq i32 %20, 2
  br i1 %24, label %100, label %25, !llvm.loop !9

25:                                               ; preds = %22
  %26 = add nsw i64 %23, -2
  %27 = icmp ult i64 %26, 8
  br i1 %27, label %89, label %28

28:                                               ; preds = %25
  %29 = and i64 %26, -8
  %30 = or i64 %29, 2
  %31 = insertelement <4 x i32> <i32 poison, i32 0, i32 0, i32 0>, i32 %19, i32 0
  %32 = add nsw i64 %29, -8
  %33 = lshr exact i64 %32, 3
  %34 = add nuw nsw i64 %33, 1
  %35 = and i64 %34, 1
  %36 = icmp eq i64 %32, 0
  br i1 %36, label %67, label %37

37:                                               ; preds = %28
  %38 = and i64 %34, 4611686018427387902
  br label %39

39:                                               ; preds = %39, %37
  %40 = phi i64 [ 0, %37 ], [ %62, %39 ]
  %41 = phi <4 x i32> [ %31, %37 ], [ %60, %39 ]
  %42 = phi <4 x i32> [ zeroinitializer, %37 ], [ %61, %39 ]
  %43 = phi i64 [ %38, %37 ], [ %63, %39 ]
  %44 = or i64 %40, 2
  %45 = getelementptr inbounds [12 x i32], [12 x i32]* @__const.main.days, i64 0, i64 %44
  %46 = bitcast i32* %45 to <4 x i32>*
  %47 = load <4 x i32>, <4 x i32>* %46, align 8, !tbaa !5
  %48 = getelementptr inbounds i32, i32* %45, i64 4
  %49 = bitcast i32* %48 to <4 x i32>*
  %50 = load <4 x i32>, <4 x i32>* %49, align 8, !tbaa !5
  %51 = add <4 x i32> %47, %41
  %52 = add <4 x i32> %50, %42
  %53 = or i64 %40, 10
  %54 = getelementptr inbounds [12 x i32], [12 x i32]* @__const.main.days, i64 0, i64 %53
  %55 = bitcast i32* %54 to <4 x i32>*
  %56 = load <4 x i32>, <4 x i32>* %55, align 8, !tbaa !5
  %57 = getelementptr inbounds i32, i32* %54, i64 4
  %58 = bitcast i32* %57 to <4 x i32>*
  %59 = load <4 x i32>, <4 x i32>* %58, align 8, !tbaa !5
  %60 = add <4 x i32> %56, %51
  %61 = add <4 x i32> %59, %52
  %62 = add nuw i64 %40, 16
  %63 = add i64 %43, -2
  %64 = icmp eq i64 %63, 0
  br i1 %64, label %65, label %39, !llvm.loop !11

65:                                               ; preds = %39
  %66 = or i64 %62, 2
  br label %67

67:                                               ; preds = %65, %28
  %68 = phi <4 x i32> [ undef, %28 ], [ %60, %65 ]
  %69 = phi <4 x i32> [ undef, %28 ], [ %61, %65 ]
  %70 = phi i64 [ 2, %28 ], [ %66, %65 ]
  %71 = phi <4 x i32> [ %31, %28 ], [ %60, %65 ]
  %72 = phi <4 x i32> [ zeroinitializer, %28 ], [ %61, %65 ]
  %73 = icmp eq i64 %35, 0
  br i1 %73, label %83, label %74

74:                                               ; preds = %67
  %75 = getelementptr inbounds [12 x i32], [12 x i32]* @__const.main.days, i64 0, i64 %70
  %76 = getelementptr inbounds i32, i32* %75, i64 4
  %77 = bitcast i32* %76 to <4 x i32>*
  %78 = load <4 x i32>, <4 x i32>* %77, align 8, !tbaa !5
  %79 = add <4 x i32> %78, %72
  %80 = bitcast i32* %75 to <4 x i32>*
  %81 = load <4 x i32>, <4 x i32>* %80, align 8, !tbaa !5
  %82 = add <4 x i32> %81, %71
  br label %83

83:                                               ; preds = %67, %74
  %84 = phi <4 x i32> [ %68, %67 ], [ %82, %74 ]
  %85 = phi <4 x i32> [ %69, %67 ], [ %79, %74 ]
  %86 = add <4 x i32> %85, %84
  %87 = call i32 @llvm.vector.reduce.add.v4i32(<4 x i32> %86)
  %88 = icmp eq i64 %26, %29
  br i1 %88, label %100, label %89

89:                                               ; preds = %25, %83
  %90 = phi i64 [ 2, %25 ], [ %30, %83 ]
  %91 = phi i32 [ %19, %25 ], [ %87, %83 ]
  br label %92

92:                                               ; preds = %89, %92
  %93 = phi i64 [ %98, %92 ], [ %90, %89 ]
  %94 = phi i32 [ %97, %92 ], [ %91, %89 ]
  %95 = getelementptr inbounds [12 x i32], [12 x i32]* @__const.main.days, i64 0, i64 %93
  %96 = load i32, i32* %95, align 4, !tbaa !5
  %97 = add nsw i32 %96, %94
  %98 = add nuw nsw i64 %93, 1
  %99 = icmp eq i64 %98, %23
  br i1 %99, label %100, label %92, !llvm.loop !13

100:                                              ; preds = %92, %83, %22
  %101 = phi i32 [ %19, %22 ], [ %87, %83 ], [ %97, %92 ]
  %102 = add i32 %101, 1
  br label %103

103:                                              ; preds = %100, %18
  %104 = phi i32 [ 1, %18 ], [ %102, %100 ]
  %105 = load i32, i32* %3, align 4, !tbaa !5
  %106 = add i32 %104, %105
  %107 = call i32 (i8*, ...) @printf(i8* nonnull dereferenceable(1) getelementptr inbounds ([4 x i8], [4 x i8]* @.str.1, i64 0, i64 0), i32 %106)
  call void @llvm.lifetime.end.p0i8(i64 4, i8* nonnull %6) #4
  call void @llvm.lifetime.end.p0i8(i64 4, i8* nonnull %5) #4
  call void @llvm.lifetime.end.p0i8(i64 4, i8* nonnull %4) #4
  ret i32 0
}

; Function Attrs: argmemonly mustprogress nofree nosync nounwind willreturn
declare void @llvm.lifetime.start.p0i8(i64 immarg, i8* nocapture) #1

; Function Attrs: nofree nounwind
declare noundef i32 @__isoc99_scanf(i8* nocapture noundef readonly, ...) local_unnamed_addr #2

; Function Attrs: nofree nounwind
declare noundef i32 @printf(i8* nocapture noundef readonly, ...) local_unnamed_addr #2

; Function Attrs: argmemonly mustprogress nofree nosync nounwind willreturn
declare void @llvm.lifetime.end.p0i8(i64 immarg, i8* nocapture) #1

; Function Attrs: nofree nosync nounwind readnone willreturn
declare i32 @llvm.vector.reduce.add.v4i32(<4 x i32>) #3


!llvm.module.flags = !{!0, !1, !2, !3}
!llvm.ident = !{!4}

!0 = !{i32 1, !"wchar_size", i32 4}
!1 = !{i32 7, !"PIC Level", i32 2}
!2 = !{i32 7, !"PIE Level", i32 2}
!3 = !{i32 7, !"uwtable", i32 1}
!4 = !{!"clang version 13.0.0"}
!5 = !{!6, !6, i64 0}
!6 = !{!"int", !7, i64 0}
!7 = !{!"omnipotent char", !8, i64 0}
!8 = !{!"Simple C/C++ TBAA"}
!9 = distinct !{!9, !10}
!10 = !{!"llvm.loop.mustprogress"}
!11 = distinct !{!11, !10, !12}
!12 = !{!"llvm.loop.isvectorized", i32 1}
!13 = distinct !{!13, !10, !14, !12}
!14 = !{!"llvm.loop.unroll.runtime.disable"}
